; Function Attrs: mustprogress uwtable
define hidden noundef zeroext i1 @_ZN7datalog21table_relation_plugin20can_handle_signatureERKNS_18relation_signatureE(ptr noundef nonnull readonly align 8 captures(none) dereferenceable(48) %0, ptr noundef nonnull align 8 dereferenceable(8) %1) unnamed_addr #3 align 2 personality ptr @__gxx_personality_v0 {
  %3 = alloca %"class.datalog::table_signature", align 8
  call void @llvm.lifetime.start.p0(i64 16, ptr nonnull %3) #21
  store ptr null, ptr %3, align 8, !tbaa !15
  %4 = getelementptr inbounds nuw i8, ptr %3, i64 8
  store i32 0, ptr %4, align 8, !tbaa !18
  %5 = getelementptr inbounds nuw i8, ptr %0, i64 24
  %6 = load ptr, ptr %5, align 8, !tbaa !23
  %7 = invoke noundef zeroext i1 @_ZN7datalog16relation_manager27relation_signature_to_tableERKNS_18relation_signatureERNS_15table_signatureE(ptr noundef nonnull align 8 dereferenceable(200) %6, ptr noundef nonnull align 8 dereferenceable(8) %1, ptr noundef nonnull align 8 dereferenceable(12) %3)
          to label %8 unwind label %24

8:                                                ; preds = %2
  br i1 %7, label %9, label %16

9:                                                ; preds = %8
  %10 = getelementptr inbounds nuw i8, ptr %0, i64 40
  %11 = load ptr, ptr %10, align 8, !tbaa !27
  %12 = load ptr, ptr %11, align 8, !tbaa !32
  %13 = getelementptr inbounds nuw i8, ptr %12, i64 24
  %14 = load ptr, ptr %13, align 8
  %15 = invoke noundef zeroext i1 %14(ptr noundef nonnull align 8 dereferenceable(32) %11, ptr noundef nonnull align 8 dereferenceable(12) %3)
          to label %16 unwind label %24

16:                                               ; preds = %9, %8
  %17 = phi i1 [ false, %8 ], [ %15, %9 ]
  %18 = load ptr, ptr %3, align 8, !tbaa !15
  %.not.i.i = icmp eq ptr %18, null
  br i1 %.not.i.i, label %_ZN6vectorImLb0EjED2Ev.exit, label %19

19:                                               ; preds = %16
  %20 = getelementptr inbounds i8, ptr %18, i64 -8
  invoke void @_ZN6memory10deallocateEPv(ptr noundef nonnull %20)
          to label %_ZN6vectorImLb0EjED2Ev.exit unwind label %21

21:                                               ; preds = %19
  %22 = landingpad { ptr, i32 }
          catch ptr null
  %23 = extractvalue { ptr, i32 } %22, 0
  call void @__clang_call_terminate(ptr %23) #25
  unreachable

_ZN6vectorImLb0EjED2Ev.exit:                      ; preds = %16, %19
  call void @llvm.lifetime.end.p0(i64 16, ptr nonnull %3) #21
  ret i1 %17

24:                                               ; preds = %9, %2
  %25 = landingpad { ptr, i32 }
          cleanup
  call void @_ZN6vectorImLb0EjED2Ev(ptr noundef nonnull align 8 dereferenceable(12) %3) #21
  call void @llvm.lifetime.end.p0(i64 16, ptr nonnull %3) #21
  resume { ptr, i32 } %25
}